target datalayout = "e-m:e-p270:32:32-p271:32:32-p272:64:64-i64:64-i128:128-f80:128-n8:16:32:64-S128"
target triple = "x86_64-pc-linux-gnu"

%struct.USystemParams = type { ptr, ptr, ptr, i32 }

; Function Attrs: mustprogress uwtable
define i32 @udbg_getSystemParameterValueByIndex(i32 noundef %0, ptr noundef %1, i32 noundef %2, ptr noundef %3) #1 {
  %5 = alloca i32, align 4
  %6 = alloca i32, align 4
  %7 = alloca ptr, align 8
  %8 = alloca i32, align 4
  %9 = alloca ptr, align 8
  store i32 %0, ptr %6, align 4, !tbaa !14
  store ptr %1, ptr %7, align 8, !tbaa !17
  store i32 %2, ptr %8, align 4, !tbaa !14
  store ptr %3, ptr %9, align 8, !tbaa !22
  %10 = load i32, ptr %6, align 4, !tbaa !14
  %11 = icmp sge i32 %10, 0
  br i1 %11, label %12, label %28

12:                                               ; preds = %4
  %13 = load i32, ptr %6, align 4, !tbaa !14
  %14 = icmp slt i32 %13, 25
  br i1 %14, label %15, label %28

15:                                               ; preds = %12
  %16 = load i32, ptr %6, align 4, !tbaa !14
  %17 = sext i32 %16 to i64
  %18 = getelementptr inbounds [25 x %struct.USystemParams], ptr @_ZL12systemParams, i64 0, i64 %17
  %19 = getelementptr inbounds nuw %struct.USystemParams, ptr %18, i32 0, i32 1
  %20 = load ptr, ptr %19, align 8, !tbaa !41
  %21 = load i32, ptr %6, align 4, !tbaa !14
  %22 = sext i32 %21 to i64
  %23 = getelementptr inbounds [25 x %struct.USystemParams], ptr @_ZL12systemParams, i64 0, i64 %22
  %24 = load ptr, ptr %7, align 8, !tbaa !17
  %25 = load i32, ptr %8, align 4, !tbaa !14
  %26 = load ptr, ptr %9, align 8, !tbaa !22
  %27 = call noundef i32 %20(ptr noundef %23, ptr noundef %24, i32 noundef %25, ptr noundef %26)
  store i32 %27, ptr %5, align 4
  br label %29

28:                                               ; preds = %12, %4
  store i32 0, ptr %5, align 4
  br label %29

29:                                               ; preds = %28, %15
  %30 = load i32, ptr %5, align 4
  ret i32 %30
}