; Function Attrs: mustprogress uwtable
define noundef i32 @udbg_getSystemParameterValueByIndex(i32 noundef %0, ptr noundef %1, i32 noundef %2, ptr noundef %3) local_unnamed_addr #1 {
  %or.cond = icmp ult i32 %0, 25
  br i1 %or.cond, label %5, label %11

5:                                                ; preds = %4
  %6 = zext nneg i32 %0 to i64
  %7 = getelementptr inbounds nuw [25 x %struct.USystemParams], ptr @_ZL12systemParams, i64 0, i64 %6
  %8 = getelementptr inbounds nuw i8, ptr %7, i64 8
  %9 = load ptr, ptr %8, align 8, !tbaa !27
  %10 = tail call noundef i32 %9(ptr noundef nonnull %7, ptr noundef %1, i32 noundef %2, ptr noundef %3)
  br label %11

11:                                               ; preds = %4, %5
  %.0 = phi i32 [ %10, %5 ], [ 0, %4 ]
  ret i32 %.0
}